ccollections
OrderedDict
p0
((lp1
(lp2
(S'20140314'
p3
I1000
S'a'
p4
tp5
a(lp6
g3
aS'1000'
p7
aS'44.26'
p8
aS'44.29'
p9
aS'44.26'
p10
aS'44.29'
p11
aS'1302'
p12
aS'1'
p13
aS'0'
p14
ag14
ag4
aaa(lp15
(S'20140314'
p16
I1000
S'b'
p17
tp18
a(lp19
g16
aS'1000'
p20
aS'45.26'
p21
aS'44.29'
p22
aS'44.26'
p23
aS'45.29'
p24
aS'1402'
p25
ag13
ag14
ag14
ag17
aaa(lp26
(S'20140314'
p27
I1001
g4
tp28
a(lp29
S'20140314'
p30
aS'1001'
p31
aS'44.81'
p32
aS'44.33'
p33
aS'44.31'
p34
aS'46.325'
p35
aS'1457'
p36
ag13
ag14
ag14
ag4
aaa(lp37
(S'20140314'
p38
I1002
g4
tp39
a(lp40
g38
aS'1002'
p41
aS'44.33'
p42
aS'44.35'
p43
aS'44.33'
p44
aS'44.35'
p45
aS'2104'
p46
ag13
ag14
ag14
ag4
aaa(lp47
(S'20140314'
p48
I1003
g4
tp49
a(lp50
g48
aS'1003'
p51
aS'44.37'
p52
aS'44.37'
p53
aS'44.36'
p54
aS'44.36'
p55
aS'600'
p56
ag13
ag14
ag14
ag4
aaa(lp57
(S'20140314'
p58
I1004
g4
tp59
a(lp60
g58
aS'1004'
p61
aS'44.35'
p62
aS'44.35'
p63
aS'44.3'
p64
aS'44.3'
p65
aS'1210'
p66
ag13
ag14
ag14
ag4
aaatp67
Rp68
.